; Function Attrs: mustprogress nofree norecurse nosync nounwind willreturn memory(read, inaccessiblemem: none) uwtable
define range(i32 0, 2) i32 @Abc_NtkIsValidCex(ptr noundef readonly captures(none) %0, ptr noundef readonly captures(none) %1) local_unnamed_addr #8 {
  %3 = getelementptr i8, ptr %0, i64 40
  %.val = load ptr, ptr %3, align 8, !tbaa !63
  %4 = getelementptr i8, ptr %.val, i64 4
  %.val.val = load i32, ptr %4, align 4, !tbaa !24
  %5 = getelementptr inbounds nuw i8, ptr %1, i64 12
  %6 = load i32, ptr %5, align 4, !tbaa !100
  %7 = icmp eq i32 %.val.val, %6
  %8 = zext i1 %7 to i32
  ret i32 %8
}